target datalayout = "e-m:e-p270:32:32-p271:32:32-p272:64:64-i64:64-i128:128-f80:128-n8:16:32:64-S128"
target triple = "x86_64-pc-linux-gnu"

@.str.161 = private unnamed_addr constant [36 x i8] c"IEEE C37.118 Synchrophasor Protocol\00", align 1
@.str.162 = private unnamed_addr constant [14 x i8] c"SYNCHROPHASOR\00", align 1
@.str.163 = private unnamed_addr constant [10 x i8] c"synphasor\00", align 1
@proto_synphasor = internal global i32 0, align 4
@synphasor_udp_handle = internal global ptr null, align 8
@.str.164 = private unnamed_addr constant [14 x i8] c"synphasor.tcp\00", align 1
@synphasor_tcp_handle = internal global ptr null, align 8

; Function Attrs: null_pointer_is_valid sspstrong uwtable
define hidden void @proto_register_synphasor() #0 {
  %1 = alloca ptr, align 8
  call void @llvm.lifetime.start.p0(i64 8, ptr %1) #8
  %2 = call i32 @proto_register_protocol(ptr noundef @.str.161, ptr noundef @.str.162, ptr noundef @.str.163)
  store i32 %2, ptr @proto_synphasor, align 4
  %3 = load i32, ptr @proto_synphasor, align 4
  %4 = call ptr @register_dissector(ptr noundef @.str.163, ptr noundef @dissect_udp, i32 noundef %3)
  store ptr %4, ptr @synphasor_udp_handle, align 8
  %5 = load i32, ptr @proto_synphasor, align 4
  %6 = call ptr @register_dissector(ptr noundef @.str.164, ptr noundef @dissect_tcp, i32 noundef %5)
  store ptr %6, ptr @synphasor_tcp_handle, align 8
  %7 = load i32, ptr @proto_synphasor, align 4
  call void @proto_register_field_array(i32 noundef %7, ptr noundef @proto_register_synphasor.hf, i32 noundef 85)
  call void @proto_register_subtree_array(ptr noundef @proto_register_synphasor.ett, i32 noundef 27)
  %8 = load i32, ptr @proto_synphasor, align 4
  %9 = call ptr @expert_register_protocol(i32 noundef %8)
  store ptr %9, ptr %1, align 8
  %10 = load ptr, ptr %1, align 8
  call void @expert_register_field_array(ptr noundef %10, ptr noundef @proto_register_synphasor.ei, i32 noundef 4)
  call void @llvm.lifetime.end.p0(i64 8, ptr %1) #8
  ret void
}