; Function Attrs: null_pointer_is_valid sspstrong uwtable
define hidden void @proto_register_synphasor() local_unnamed_addr #0 {
  %1 = tail call i32 @proto_register_protocol(ptr noundef nonnull @.str.161, ptr noundef nonnull @.str.162, ptr noundef nonnull @.str.163)
  store i32 %1, ptr @proto_synphasor, align 4
  %2 = tail call ptr @register_dissector(ptr noundef nonnull @.str.163, ptr noundef nonnull @dissect_udp, i32 noundef %1)
  store ptr %2, ptr @synphasor_udp_handle, align 8
  %3 = load i32, ptr @proto_synphasor, align 4
  %4 = tail call ptr @register_dissector(ptr noundef nonnull @.str.164, ptr noundef nonnull @dissect_tcp, i32 noundef %3)
  store ptr %4, ptr @synphasor_tcp_handle, align 8
  %5 = load i32, ptr @proto_synphasor, align 4
  tail call void @proto_register_field_array(i32 noundef %5, ptr noundef nonnull @proto_register_synphasor.hf, i32 noundef 85)
  tail call void @proto_register_subtree_array(ptr noundef nonnull @proto_register_synphasor.ett, i32 noundef 27)
  %6 = load i32, ptr @proto_synphasor, align 4
  %7 = tail call ptr @expert_register_protocol(i32 noundef %6)
  tail call void @expert_register_field_array(ptr noundef %7, ptr noundef nonnull @proto_register_synphasor.ei, i32 noundef 4)
  ret void
}